; Function Attrs: mustprogress uwtable
define noundef zeroext i1 @_ZN6Assimp8Importer17SetPropertyStringEPKcRKNSt7__cxx1112basic_stringIcSt11char_traitsIcESaIcEEE(ptr nocapture noundef nonnull readonly align 8 dereferenceable(8) %this, ptr noundef %szName, ptr noundef nonnull align 8 dereferenceable(32) %value) local_unnamed_addr #2 align 2 personality ptr @__gxx_personality_v0 {
entry:
  %0 = load ptr, ptr %this, align 8
  %mStringProperties = getelementptr inbounds i8, ptr %0, i64 224
  %call = invoke noundef zeroext i1 @_Z18SetGenericPropertyINSt7__cxx1112basic_stringIcSt11char_traitsIcESaIcEEEEbRSt3mapIjT_St4lessIjESaISt4pairIKjS7_EEEPKcRKS7_(ptr noundef nonnull align 8 dereferenceable(48) %mStringProperties, ptr noundef %szName, ptr noundef nonnull align 8 dereferenceable(32) %value)
          to label %return unwind label %lpad

lpad:                                             ; preds = %entry
  %1 = landingpad { ptr, i32 }
          catch ptr null
  %2 = extractvalue { ptr, i32 } %1, 0
  %3 = tail call ptr @__cxa_begin_catch(ptr %2) #25
  tail call void @__cxa_end_catch()
  br label %return

return:                                           ; preds = %entry, %lpad
  %retval.0 = phi i1 [ false, %lpad ], [ %call, %entry ]
  ret i1 %retval.0
}